; Function Attrs: nounwind uwtable
define noalias noundef ptr @Pla_ManPrimesDetector(i32 noundef %0) local_unnamed_addr #0 {
  %2 = alloca [1000 x i8], align 16
  call void @llvm.lifetime.start.p0(i64 1000, ptr nonnull %2) #18
  %3 = tail call ptr @Pla_GenPrimes(i32 noundef %0)
  %4 = call i32 (ptr, ptr, ...) @sprintf(ptr noundef nonnull dereferenceable(1) %2, ptr noundef nonnull dereferenceable(1) @.str.13, i32 noundef %0) #18
  %5 = getelementptr i8, ptr %3, i64 4
  %.val.i = load i32, ptr %5, align 4, !tbaa !21
  %6 = call fastcc ptr @Pla_ManAlloc(ptr noundef nonnull %2, i32 noundef %0, i32 noundef 1, i32 noundef %.val.i)
  %7 = getelementptr i8, ptr %6, i64 44
  %.val30.i = load i32, ptr %7, align 4, !tbaa !21
  %8 = icmp sgt i32 %.val30.i, 0
  br i1 %8, label %.lr.ph40.i, label %.Pla_GenFromMinterms.exit_crit_edge

.Pla_GenFromMinterms.exit_crit_edge:              ; preds = %1
  %.phi.trans.insert = getelementptr inbounds nuw i8, ptr %3, i64 8
  %.pre = load ptr, ptr %.phi.trans.insert, align 8, !tbaa !24
  br label %Pla_GenFromMinterms.exit

.lr.ph40.i:                                       ; preds = %1
  %9 = getelementptr i8, ptr %6, i64 80
  %.val33.i = load ptr, ptr %9, align 8, !tbaa !26
  %10 = getelementptr i8, ptr %3, i64 8
  %.val34.i = load ptr, ptr %10, align 8, !tbaa !24
  %11 = getelementptr i8, ptr %6, i64 20
  %.val35.i = load i32, ptr %11, align 4, !tbaa !29
  %12 = icmp sgt i32 %.val35.i, 0
  br i1 %12, label %.lr.ph.us.preheader.i, label %.lr.ph40.i..lr.ph.i_crit_edge

.lr.ph40.i..lr.ph.i_crit_edge:                    ; preds = %.lr.ph40.i
  %.pre5 = zext nneg i32 %.val30.i to i64
  br label %.lr.ph.i

.lr.ph.us.preheader.i:                            ; preds = %.lr.ph40.i
  %13 = getelementptr i8, ptr %6, i64 28
  %.val32.i = load i32, ptr %13, align 4, !tbaa !34
  %14 = sext i32 %.val32.i to i64
  %wide.trip.count.i = zext nneg i32 %.val30.i to i64
  br label %.lr.ph.us.i

.lr.ph.us.i:                                      ; preds = %..critedge2_crit_edge.us.i, %.lr.ph.us.preheader.i
  %indvars.iv.i = phi i64 [ 0, %.lr.ph.us.preheader.i ], [ %indvars.iv.next.i, %..critedge2_crit_edge.us.i ]
  %15 = mul nsw i64 %indvars.iv.i, %14
  %16 = getelementptr inbounds i64, ptr %.val33.i, i64 %15
  %17 = getelementptr inbounds nuw i32, ptr %.val34.i, i64 %indvars.iv.i
  %18 = load i32, ptr %17, align 4, !tbaa !17
  br label %19

19:                                               ; preds = %19, %.lr.ph.us.i
  %.02938.us.i = phi i32 [ 0, %.lr.ph.us.i ], [ %32, %19 ]
  %20 = lshr i32 %.02938.us.i, 5
  %21 = zext nneg i32 %20 to i64
  %22 = getelementptr inbounds nuw i64, ptr %16, i64 %21
  %23 = load i64, ptr %22, align 8, !tbaa !35
  %24 = shl nuw i32 %.02938.us.i, 1
  %25 = and i32 %24, 62
  %26 = zext nneg i32 %25 to i64
  %27 = shl nuw i32 1, %.02938.us.i
  %28 = and i32 %27, %18
  %.not.us.i = icmp eq i32 %28, 0
  %29 = select i1 %.not.us.i, i64 1, i64 2
  %30 = shl nuw i64 %29, %26
  %31 = or i64 %30, %23
  store i64 %31, ptr %22, align 8, !tbaa !35
  %32 = add nuw nsw i32 %.02938.us.i, 1
  %exitcond.not.i = icmp eq i32 %32, %.val35.i
  br i1 %exitcond.not.i, label %..critedge2_crit_edge.us.i, label %19, !llvm.loop !37

..critedge2_crit_edge.us.i:                       ; preds = %19
  %indvars.iv.next.i = add nuw nsw i64 %indvars.iv.i, 1
  %exitcond44.not.i = icmp eq i64 %indvars.iv.next.i, %wide.trip.count.i
  br i1 %exitcond44.not.i, label %.lr.ph.i, label %.lr.ph.us.i, !llvm.loop !38

.lr.ph.i:                                         ; preds = %..critedge2_crit_edge.us.i, %.lr.ph40.i..lr.ph.i_crit_edge
  %wide.trip.count48.i.pre-phi = phi i64 [ %.pre5, %.lr.ph40.i..lr.ph.i_crit_edge ], [ %wide.trip.count.i, %..critedge2_crit_edge.us.i ]
  %33 = getelementptr i8, ptr %6, i64 32
  %.val36.i = load i32, ptr %33, align 8, !tbaa !39
  %34 = getelementptr i8, ptr %6, i64 96
  %.val37.i = load ptr, ptr %34, align 8, !tbaa !26
  %35 = sext i32 %.val36.i to i64
  br label %.critedge.i

.critedge.i:                                      ; preds = %.critedge.i, %.lr.ph.i
  %indvars.iv45.i = phi i64 [ 0, %.lr.ph.i ], [ %indvars.iv.next46.i, %.critedge.i ]
  %36 = mul nsw i64 %indvars.iv45.i, %35
  %37 = getelementptr inbounds i64, ptr %.val37.i, i64 %36
  %38 = load i64, ptr %37, align 8, !tbaa !35
  %39 = or i64 %38, 2
  store i64 %39, ptr %37, align 8, !tbaa !35
  %indvars.iv.next46.i = add nuw nsw i64 %indvars.iv45.i, 1
  %exitcond49.not.i = icmp eq i64 %indvars.iv.next46.i, %wide.trip.count48.i.pre-phi
  br i1 %exitcond49.not.i, label %Pla_GenFromMinterms.exit, label %.critedge.i, !llvm.loop !40

Pla_GenFromMinterms.exit:                         ; preds = %.critedge.i, %.Pla_GenFromMinterms.exit_crit_edge
  %40 = phi ptr [ %.pre, %.Pla_GenFromMinterms.exit_crit_edge ], [ %.val34.i, %.critedge.i ]
  %.not.i = icmp eq ptr %40, null
  br i1 %.not.i, label %Vec_IntFree.exit, label %41

41:                                               ; preds = %Pla_GenFromMinterms.exit
  call void @free(ptr noundef nonnull %40) #18
  br label %Vec_IntFree.exit

Vec_IntFree.exit:                                 ; preds = %Pla_GenFromMinterms.exit, %41
  call void @free(ptr noundef nonnull %3) #18
  call void @llvm.lifetime.end.p0(i64 1000, ptr nonnull %2) #18
  ret ptr %6
}